target datalayout = "e-m:e-p270:32:32-p271:32:32-p272:64:64-i64:64-i128:128-f80:128-n8:16:32:64-S128"
target triple = "x86_64-pc-linux-gnu"

; Function Attrs: nounwind uwtable
define ptr @dt_filename_change_extension(ptr noundef %0, ptr noundef %1) #0 {
  %3 = alloca ptr, align 8
  %4 = alloca ptr, align 8
  %5 = alloca ptr, align 8
  %6 = alloca ptr, align 8
  %7 = alloca i32, align 4
  %8 = alloca i32, align 4
  %9 = alloca i32, align 4
  %10 = alloca ptr, align 8
  store ptr %0, ptr %4, align 8, !tbaa !6
  store ptr %1, ptr %5, align 8, !tbaa !6
  %11 = load ptr, ptr %4, align 8, !tbaa !6
  %12 = icmp ne ptr %11, null
  br i1 %12, label %13, label %16

13:                                               ; preds = %2
  %14 = load ptr, ptr %5, align 8, !tbaa !6
  %15 = icmp ne ptr %14, null
  br i1 %15, label %17, label %16

16:                                               ; preds = %13, %2
  store ptr null, ptr %3, align 8
  br label %58

17:                                               ; preds = %13
  call void @llvm.lifetime.start.p0(i64 8, ptr %6) #18
  %18 = load ptr, ptr %4, align 8, !tbaa !6
  %19 = call ptr @strrchr(ptr noundef %18, i32 noundef 46) #17
  store ptr %19, ptr %6, align 8, !tbaa !6
  %20 = load ptr, ptr %6, align 8, !tbaa !6
  %21 = icmp ne ptr %20, null
  br i1 %21, label %23, label %22

22:                                               ; preds = %17
  store ptr null, ptr %3, align 8
  store i32 1, ptr %7, align 4
  br label %57

23:                                               ; preds = %17
  call void @llvm.lifetime.start.p0(i64 4, ptr %8) #18
  %24 = load ptr, ptr %6, align 8, !tbaa !6
  %25 = load ptr, ptr %4, align 8, !tbaa !6
  %26 = ptrtoint ptr %24 to i64
  %27 = ptrtoint ptr %25 to i64
  %28 = sub i64 %26, %27
  %29 = add nsw i64 %28, 1
  %30 = trunc i64 %29 to i32
  store i32 %30, ptr %8, align 4, !tbaa !15
  call void @llvm.lifetime.start.p0(i64 4, ptr %9) #18
  %31 = load ptr, ptr %5, align 8, !tbaa !6
  %32 = call i64 @strlen(ptr noundef %31) #17
  %33 = trunc i64 %32 to i32
  store i32 %33, ptr %9, align 4, !tbaa !15
  call void @llvm.lifetime.start.p0(i64 8, ptr %10) #18
  %34 = load i32, ptr %8, align 4, !tbaa !15
  %35 = load i32, ptr %9, align 4, !tbaa !15
  %36 = add nsw i32 %34, %35
  %37 = add nsw i32 %36, 1
  %38 = sext i32 %37 to i64
  %39 = call noalias ptr @g_try_malloc(i64 noundef %38) #19
  store ptr %39, ptr %10, align 8, !tbaa !6
  %40 = load ptr, ptr %10, align 8, !tbaa !6
  %41 = icmp ne ptr %40, null
  br i1 %41, label %42, label %55

42:                                               ; preds = %23
  %43 = load ptr, ptr %10, align 8, !tbaa !6
  %44 = load ptr, ptr %4, align 8, !tbaa !6
  %45 = load i32, ptr %8, align 4, !tbaa !15
  %46 = sext i32 %45 to i64
  call void @llvm.memcpy.p0.p0.i64(ptr align 1 %43, ptr align 1 %44, i64 %46, i1 false)
  %47 = load ptr, ptr %10, align 8, !tbaa !6
  %48 = load i32, ptr %8, align 4, !tbaa !15
  %49 = sext i32 %48 to i64
  %50 = getelementptr inbounds i8, ptr %47, i64 %49
  %51 = load ptr, ptr %5, align 8, !tbaa !6
  %52 = load i32, ptr %9, align 4, !tbaa !15
  %53 = add nsw i32 %52, 1
  %54 = sext i32 %53 to i64
  call void @llvm.memcpy.p0.p0.i64(ptr align 1 %50, ptr align 1 %51, i64 %54, i1 false)
  br label %55

55:                                               ; preds = %42, %23
  %56 = load ptr, ptr %10, align 8, !tbaa !6
  store ptr %56, ptr %3, align 8
  store i32 1, ptr %7, align 4
  call void @llvm.lifetime.end.p0(i64 8, ptr %10) #18
  call void @llvm.lifetime.end.p0(i64 4, ptr %9) #18
  call void @llvm.lifetime.end.p0(i64 4, ptr %8) #18
  br label %57

57:                                               ; preds = %55, %22
  call void @llvm.lifetime.end.p0(i64 8, ptr %6) #18
  br label %58

58:                                               ; preds = %57, %16
  %59 = load ptr, ptr %3, align 8
  ret ptr %59
}