; Function Attrs: nounwind uwtable
define noalias ptr @dt_filename_change_extension(ptr noundef %0, ptr noundef readonly %1) local_unnamed_addr #0 {
  %3 = icmp ne ptr %0, null
  %4 = icmp ne ptr %1, null
  %or.cond = and i1 %3, %4
  br i1 %or.cond, label %5, label %22

5:                                                ; preds = %2
  %6 = tail call ptr @strrchr(ptr noundef nonnull dereferenceable(1) %0, i32 noundef 46) #26
  %.not = icmp eq ptr %6, null
  br i1 %.not, label %22, label %7

7:                                                ; preds = %5
  %8 = ptrtoint ptr %6 to i64
  %9 = ptrtoint ptr %0 to i64
  %10 = sub i64 %8, %9
  %11 = tail call i64 @strlen(ptr noundef nonnull dereferenceable(1) %1) #26
  %12 = add i64 %10, 2
  %13 = add i64 %12, %11
  %sext24 = shl i64 %13, 32
  %14 = ashr exact i64 %sext24, 32
  %15 = tail call noalias ptr @g_try_malloc(i64 noundef %14) #28
  %.not23 = icmp eq ptr %15, null
  br i1 %.not23, label %22, label %16

16:                                               ; preds = %7
  %17 = shl i64 %10, 32
  %sext25 = add i64 %17, 4294967296
  %18 = ashr exact i64 %sext25, 32
  tail call void @llvm.memcpy.p0.p0.i64(ptr nonnull align 1 %15, ptr nonnull align 1 %0, i64 %18, i1 false)
  %19 = getelementptr inbounds i8, ptr %15, i64 %18
  %20 = shl i64 %11, 32
  %sext = add i64 %20, 4294967296
  %21 = ashr exact i64 %sext, 32
  tail call void @llvm.memcpy.p0.p0.i64(ptr nonnull align 1 %19, ptr nonnull align 1 %1, i64 %21, i1 false)
  br label %22

22:                                               ; preds = %5, %16, %7, %2
  %.0 = phi ptr [ null, %2 ], [ null, %5 ], [ %15, %16 ], [ null, %7 ]
  ret ptr %.0
}